; Function Attrs: null_pointer_is_valid sspstrong uwtable
define internal fastcc void @finish_process_pkt(ptr noundef %0, ptr noundef %1, ptr noundef %2, ptr noundef initializes((16, 24)) %3) unnamed_addr #0 {
  %5 = alloca %struct.osmux_stream_key, align 8
  %6 = getelementptr inbounds nuw i8, ptr %3, i64 6
  %7 = load i8, ptr %6, align 2
  %8 = zext i8 %7 to i32
  call void @llvm.lifetime.start.p0(i64 64, ptr nonnull %5) #12
  %9 = getelementptr inbounds nuw i8, ptr %1, i64 208
  %10 = load i32, ptr %9, align 8
  %11 = getelementptr inbounds nuw i8, ptr %1, i64 212
  %12 = load i32, ptr %11, align 4
  %13 = getelementptr inbounds nuw i8, ptr %1, i64 216
  %14 = load ptr, ptr %13, align 8
  store i32 %10, ptr %5, align 8
  %15 = getelementptr inbounds nuw i8, ptr %5, i64 4
  store i32 %12, ptr %15, align 4
  %16 = getelementptr inbounds nuw i8, ptr %5, i64 8
  store ptr %14, ptr %16, align 8
  %17 = getelementptr inbounds nuw i8, ptr %5, i64 16
  store ptr null, ptr %17, align 8
  %18 = getelementptr inbounds nuw i8, ptr %5, i64 24
  %19 = getelementptr inbounds nuw i8, ptr %1, i64 232
  %20 = load i32, ptr %19, align 8
  %21 = getelementptr inbounds nuw i8, ptr %1, i64 236
  %22 = load i32, ptr %21, align 4
  %23 = getelementptr inbounds nuw i8, ptr %1, i64 240
  %24 = load ptr, ptr %23, align 8
  store i32 %20, ptr %18, align 8
  %25 = getelementptr inbounds nuw i8, ptr %5, i64 28
  store i32 %22, ptr %25, align 4
  %26 = getelementptr inbounds nuw i8, ptr %5, i64 32
  store ptr %24, ptr %26, align 8
  %27 = getelementptr inbounds nuw i8, ptr %5, i64 40
  store ptr null, ptr %27, align 8
  %28 = getelementptr inbounds nuw i8, ptr %1, i64 280
  %29 = load i32, ptr %28, align 8
  %30 = getelementptr inbounds nuw i8, ptr %5, i64 48
  store i32 %29, ptr %30, align 8
  %31 = getelementptr inbounds nuw i8, ptr %1, i64 284
  %32 = load i32, ptr %31, align 4
  %33 = getelementptr inbounds nuw i8, ptr %5, i64 52
  store i32 %32, ptr %33, align 4
  %34 = getelementptr inbounds nuw i8, ptr %1, i64 288
  %35 = load i32, ptr %34, align 8
  %36 = getelementptr inbounds nuw i8, ptr %5, i64 56
  store i32 %35, ptr %36, align 8
  %37 = getelementptr inbounds nuw i8, ptr %5, i64 60
  store i32 %8, ptr %37, align 4
  %38 = load ptr, ptr @osmux_stream_hash, align 8
  %39 = call ptr @wmem_map_lookup(ptr noundef %38, ptr noundef nonnull %5)
  %.not.i = icmp eq ptr %39, null
  br i1 %.not.i, label %40, label %get_stream.exit

40:                                               ; preds = %4
  %41 = call ptr @wmem_file_scope()
  %42 = call noalias dereferenceable_or_null(64) ptr @wmem_alloc(ptr noundef %41, i64 noundef 64) #13
  call void @llvm.memcpy.p0.p0.i64(ptr noundef align 8 dereferenceable(64) %42, ptr noundef nonnull align 8 dereferenceable(64) %5, i64 64, i1 false)
  %43 = call ptr @wmem_file_scope()
  %44 = load i32, ptr %5, align 8
  %45 = load i32, ptr %15, align 4
  %46 = load ptr, ptr %16, align 8
  call void @llvm.memset.p0.i64(ptr noundef align 8 dereferenceable(24) %42, i8 0, i64 24, i1 false)
  store i32 %44, ptr %42, align 8
  %47 = icmp eq i32 %45, 0
  br i1 %47, label %copy_address_wmem.exit.i, label %48

48:                                               ; preds = %40
  %49 = sext i32 %45 to i64
  %50 = call ptr @wmem_memdup(ptr noundef %43, ptr noundef %46, i64 noundef %49) #14
  %51 = getelementptr inbounds nuw i8, ptr %42, i64 16
  store ptr %50, ptr %51, align 8
  %52 = getelementptr inbounds nuw i8, ptr %42, i64 8
  store ptr %50, ptr %52, align 8
  %53 = getelementptr inbounds nuw i8, ptr %42, i64 4
  store i32 %45, ptr %53, align 4
  br label %copy_address_wmem.exit.i

copy_address_wmem.exit.i:                         ; preds = %48, %40
  %54 = call ptr @wmem_file_scope()
  %55 = getelementptr inbounds nuw i8, ptr %42, i64 24
  %56 = load i32, ptr %18, align 8
  %57 = load i32, ptr %25, align 4
  %58 = load ptr, ptr %26, align 8
  call void @llvm.memset.p0.i64(ptr noundef nonnull align 8 dereferenceable(24) %55, i8 0, i64 24, i1 false)
  store i32 %56, ptr %55, align 8
  %59 = icmp eq i32 %57, 0
  br i1 %59, label %copy_address_wmem.exit16.i, label %60

60:                                               ; preds = %copy_address_wmem.exit.i
  %61 = sext i32 %57 to i64
  %62 = call ptr @wmem_memdup(ptr noundef %54, ptr noundef %58, i64 noundef %61) #14
  %63 = getelementptr inbounds nuw i8, ptr %42, i64 40
  store ptr %62, ptr %63, align 8
  %64 = getelementptr inbounds nuw i8, ptr %42, i64 32
  store ptr %62, ptr %64, align 8
  %65 = getelementptr inbounds nuw i8, ptr %42, i64 28
  store i32 %57, ptr %65, align 4
  br label %copy_address_wmem.exit16.i

copy_address_wmem.exit16.i:                       ; preds = %60, %copy_address_wmem.exit.i
  %66 = call ptr @wmem_file_scope()
  %67 = call noalias dereferenceable_or_null(56) ptr @wmem_alloc0(ptr noundef %66, i64 noundef 56) #13
  store ptr %42, ptr %67, align 8
  %68 = load i32, ptr @osmux_next_stream_id, align 4
  %69 = getelementptr inbounds nuw i8, ptr %67, i64 48
  store i32 %68, ptr %69, align 8
  %70 = add i32 %68, 1
  store i32 %70, ptr @osmux_next_stream_id, align 4
  %71 = load ptr, ptr @osmux_stream_hash, align 8
  %72 = call ptr @wmem_map_insert(ptr noundef %71, ptr noundef %42, ptr noundef %67)
  br label %get_stream.exit

get_stream.exit:                                  ; preds = %4, %copy_address_wmem.exit16.i
  %.0.i = phi ptr [ %39, %4 ], [ %67, %copy_address_wmem.exit16.i ]
  call void @llvm.lifetime.end.p0(i64 64, ptr nonnull %5) #12
  %73 = getelementptr inbounds nuw i8, ptr %3, i64 16
  store ptr %.0.i, ptr %73, align 8
  %74 = load i32, ptr @hf_osmux_stream_id, align 4
  %75 = getelementptr inbounds nuw i8, ptr %.0.i, i64 48
  %76 = load i32, ptr %75, align 8
  %77 = call ptr @proto_tree_add_uint(ptr noundef %2, i32 noundef %74, ptr noundef %0, i32 noundef 0, i32 noundef 0, i32 noundef %76)
  %.not.i9 = icmp eq ptr %77, null
  br i1 %.not.i9, label %proto_item_set_generated.exit, label %78

78:                                               ; preds = %get_stream.exit
  %79 = getelementptr inbounds nuw i8, ptr %77, i64 40
  %80 = load ptr, ptr %79, align 8
  %.not5.i = icmp eq ptr %80, null
  br i1 %.not5.i, label %proto_item_set_generated.exit, label %81

81:                                               ; preds = %78
  %82 = getelementptr inbounds nuw i8, ptr %80, i64 28
  %83 = load i32, ptr %82, align 4
  %84 = or i32 %83, 2
  store i32 %84, ptr %82, align 4
  br label %proto_item_set_generated.exit

proto_item_set_generated.exit:                    ; preds = %get_stream.exit, %78, %81
  %85 = load i32, ptr @osmux_tap, align 4
  call void @tap_queue_packet(i32 noundef %85, ptr noundef %1, ptr noundef %3)
  ret void
}